target datalayout = "e-m:e-p270:32:32-p271:32:32-p272:64:64-i64:64-i128:128-f80:128-n8:16:32:64-S128"
target triple = "x86_64-unknown-linux-gnu"

%"struct.facebook::velox::Timestamp" = type { i64, i64 }
%"class.std::chrono::time_point" = type { %"class.std::chrono::duration" }
%"class.std::chrono::duration" = type { i64 }
%"class.std::chrono::duration.0" = type { i64 }

; Function Attrs: mustprogress nounwind uwtable
define linkonce_odr void @_ZNSt6chrono8durationIlSt5ratioILl1ELl1000EEEC2IlvEERKT_(ptr noundef nonnull align 8 dereferenceable(8) %this, ptr noundef nonnull align 8 dereferenceable(8) %__rep) unnamed_addr #2 comdat align 2 {
entry:
  %this.addr = alloca ptr, align 8
  %__rep.addr = alloca ptr, align 8
  store ptr %this, ptr %this.addr, align 8
  store ptr %__rep, ptr %__rep.addr, align 8
  %this1 = load ptr, ptr %this.addr, align 8
  %__r = getelementptr inbounds %"class.std::chrono::duration.0", ptr %this1, i32 0, i32 0
  %0 = load ptr, ptr %__rep.addr, align 8
  %1 = load i64, ptr %0, align 8
  store i64 %1, ptr %__r, align 8
  ret void
}

; Function Attrs: mustprogress nounwind uwtable
define linkonce_odr noundef i64 @_ZNKSt6chrono8durationIlSt5ratioILl1ELl1000000000EEE5countEv(ptr noundef nonnull align 8 dereferenceable(8) %this) #2 comdat align 2 {
entry:
  %this.addr = alloca ptr, align 8
  store ptr %this, ptr %this.addr, align 8
  %this1 = load ptr, ptr %this.addr, align 8
  %__r = getelementptr inbounds %"class.std::chrono::duration", ptr %this1, i32 0, i32 0
  %0 = load i64, ptr %__r, align 8
  ret i64 %0
}

; Function Attrs: mustprogress nounwind uwtable
define linkonce_odr void @_ZN8facebook5velox9TimestampC2Elm(ptr noundef nonnull align 8 dereferenceable(16) %this, i64 noundef %seconds, i64 noundef %nanos) unnamed_addr #2 comdat align 2 {
entry:
  %this.addr = alloca ptr, align 8
  %seconds.addr = alloca i64, align 8
  %nanos.addr = alloca i64, align 8
  store ptr %this, ptr %this.addr, align 8
  store i64 %seconds, ptr %seconds.addr, align 8
  store i64 %nanos, ptr %nanos.addr, align 8
  %this1 = load ptr, ptr %this.addr, align 8
  %seconds_ = getelementptr inbounds %"struct.facebook::velox::Timestamp", ptr %this1, i32 0, i32 0
  %0 = load i64, ptr %seconds.addr, align 8
  store i64 %0, ptr %seconds_, align 8
  %nanos_ = getelementptr inbounds %"struct.facebook::velox::Timestamp", ptr %this1, i32 0, i32 1
  %1 = load i64, ptr %nanos.addr, align 8
  store i64 %1, ptr %nanos_, align 8
  ret void
}

; Function Attrs: mustprogress uwtable
define linkonce_odr i64 @_ZNSt6chrono20__duration_cast_implINS_8durationIlSt5ratioILl1ELl1000EEEES2_ILl1ELl1000000EElLb1ELb0EE6__castIlS2_ILl1ELl1000000000EEEES4_RKNS1_IT_T0_EE(ptr noundef nonnull align 8 dereferenceable(8) %__d) #0 comdat align 2 {
entry:
  %retval = alloca %"class.std::chrono::duration.0", align 8
  %__d.addr = alloca ptr, align 8
  %ref.tmp = alloca i64, align 8
  store ptr %__d, ptr %__d.addr, align 8
  %0 = load ptr, ptr %__d.addr, align 8
  %call = call noundef i64 @_ZNKSt6chrono8durationIlSt5ratioILl1ELl1000000000EEE5countEv(ptr noundef nonnull align 8 dereferenceable(8) %0)
  %div = sdiv i64 %call, 1000000
  store i64 %div, ptr %ref.tmp, align 8
  call void @_ZNSt6chrono8durationIlSt5ratioILl1ELl1000EEEC2IlvEERKT_(ptr noundef nonnull align 8 dereferenceable(8) %retval, ptr noundef nonnull align 8 dereferenceable(8) %ref.tmp)
  %coerce.dive = getelementptr inbounds %"class.std::chrono::duration.0", ptr %retval, i32 0, i32 0
  %1 = load i64, ptr %coerce.dive, align 8
  ret i64 %1
}

; Function Attrs: mustprogress uwtable
define linkonce_odr { i64, i64 } @_ZN8facebook5velox9Timestamp10fromMillisEl(i64 noundef %millis) #0 comdat align 2 {
entry:
  %retval = alloca %"struct.facebook::velox::Timestamp", align 8
  %millis.addr = alloca i64, align 8
  %second = alloca i64, align 8
  %nano = alloca i64, align 8
  store i64 %millis, ptr %millis.addr, align 8
  %0 = load i64, ptr %millis.addr, align 8
  %cmp = icmp sge i64 %0, 0
  br i1 %cmp, label %if.then, label %lor.lhs.false

lor.lhs.false:                                    ; preds = %entry
  %1 = load i64, ptr %millis.addr, align 8
  %rem = srem i64 %1, 1000
  %cmp1 = icmp eq i64 %rem, 0
  br i1 %cmp1, label %if.then, label %if.end

if.then:                                          ; preds = %lor.lhs.false, %entry
  %2 = load i64, ptr %millis.addr, align 8
  %div = sdiv i64 %2, 1000
  %3 = load i64, ptr %millis.addr, align 8
  %rem2 = srem i64 %3, 1000
  %mul = mul nsw i64 %rem2, 1000000
  call void @_ZN8facebook5velox9TimestampC2Elm(ptr noundef nonnull align 8 dereferenceable(16) %retval, i64 noundef %div, i64 noundef %mul)
  br label %return

if.end:                                           ; preds = %lor.lhs.false
  %4 = load i64, ptr %millis.addr, align 8
  %div3 = sdiv i64 %4, 1000
  %sub = sub nsw i64 %div3, 1
  store i64 %sub, ptr %second, align 8
  %5 = load i64, ptr %millis.addr, align 8
  %6 = load i64, ptr %second, align 8
  %mul4 = mul nsw i64 %6, 1000
  %sub5 = sub nsw i64 %5, %mul4
  %rem6 = srem i64 %sub5, 1000
  %mul7 = mul nsw i64 %rem6, 1000000
  store i64 %mul7, ptr %nano, align 8
  %7 = load i64, ptr %second, align 8
  %8 = load i64, ptr %nano, align 8
  call void @_ZN8facebook5velox9TimestampC2Elm(ptr noundef nonnull align 8 dereferenceable(16) %retval, i64 noundef %7, i64 noundef %8)
  br label %return

return:                                           ; preds = %if.end, %if.then
  %9 = load { i64, i64 }, ptr %retval, align 8
  ret { i64, i64 } %9
}

; Function Attrs: mustprogress nounwind uwtable
define linkonce_odr noundef i64 @_ZNKSt6chrono8durationIlSt5ratioILl1ELl1000EEE5countEv(ptr noundef nonnull align 8 dereferenceable(8) %this) #2 comdat align 2 {
entry:
  %this.addr = alloca ptr, align 8
  store ptr %this, ptr %this.addr, align 8
  %this1 = load ptr, ptr %this.addr, align 8
  %__r = getelementptr inbounds %"class.std::chrono::duration.0", ptr %this1, i32 0, i32 0
  %0 = load i64, ptr %__r, align 8
  ret i64 %0
}

; Function Attrs: mustprogress uwtable
define linkonce_odr i64 @_ZNSt6chrono13duration_castINS_8durationIlSt5ratioILl1ELl1000EEEElS2_ILl1ELl1000000000EEEENSt9enable_ifIXsr13__is_durationIT_EE5valueES7_E4typeERKNS1_IT0_T1_EE(ptr noundef nonnull align 8 dereferenceable(8) %__d) #0 comdat {
entry:
  %retval = alloca %"class.std::chrono::duration.0", align 8
  %__d.addr = alloca ptr, align 8
  store ptr %__d, ptr %__d.addr, align 8
  %0 = load ptr, ptr %__d.addr, align 8
  %call = call i64 @_ZNSt6chrono20__duration_cast_implINS_8durationIlSt5ratioILl1ELl1000EEEES2_ILl1ELl1000000EElLb1ELb0EE6__castIlS2_ILl1ELl1000000000EEEES4_RKNS1_IT_T0_EE(ptr noundef nonnull align 8 dereferenceable(8) %0)
  %coerce.dive = getelementptr inbounds %"class.std::chrono::duration.0", ptr %retval, i32 0, i32 0
  store i64 %call, ptr %coerce.dive, align 8
  %coerce.dive1 = getelementptr inbounds %"class.std::chrono::duration.0", ptr %retval, i32 0, i32 0
  %1 = load i64, ptr %coerce.dive1, align 8
  ret i64 %1
}

; Function Attrs: mustprogress nounwind uwtable
define linkonce_odr i64 @_ZNKSt6chrono10time_pointINS_3_V212system_clockENS_8durationIlSt5ratioILl1ELl1000000000EEEEE16time_since_epochEv(ptr noundef nonnull align 8 dereferenceable(8) %this) #2 comdat align 2 {
entry:
  %retval = alloca %"class.std::chrono::duration", align 8
  %this.addr = alloca ptr, align 8
  store ptr %this, ptr %this.addr, align 8
  %this1 = load ptr, ptr %this.addr, align 8
  %__d = getelementptr inbounds %"class.std::chrono::time_point", ptr %this1, i32 0, i32 0
  call void @llvm.memcpy.p0.p0.i64(ptr align 8 %retval, ptr align 8 %__d, i64 8, i1 false)
  %coerce.dive = getelementptr inbounds %"class.std::chrono::duration", ptr %retval, i32 0, i32 0
  %0 = load i64, ptr %coerce.dive, align 8
  ret i64 %0
}

; Function Attrs: mustprogress uwtable
define { i64, i64 } @_ZN8facebook5velox9Timestamp3nowEv() #0 align 2 {
entry:
  %retval = alloca %"struct.facebook::velox::Timestamp", align 8
  %now = alloca %"class.std::chrono::time_point", align 8
  %epochMs = alloca i64, align 8
  %ref.tmp = alloca %"class.std::chrono::duration.0", align 8
  %ref.tmp2 = alloca %"class.std::chrono::duration", align 8
  %call = call i64 @_ZNSt6chrono3_V212system_clock3nowEv() #10
  %coerce.dive = getelementptr inbounds %"class.std::chrono::time_point", ptr %now, i32 0, i32 0
  %coerce.dive1 = getelementptr inbounds %"class.std::chrono::duration", ptr %coerce.dive, i32 0, i32 0
  store i64 %call, ptr %coerce.dive1, align 8
  %call3 = call i64 @_ZNKSt6chrono10time_pointINS_3_V212system_clockENS_8durationIlSt5ratioILl1ELl1000000000EEEEE16time_since_epochEv(ptr noundef nonnull align 8 dereferenceable(8) %now)
  %coerce.dive4 = getelementptr inbounds %"class.std::chrono::duration", ptr %ref.tmp2, i32 0, i32 0
  store i64 %call3, ptr %coerce.dive4, align 8
  %call5 = call i64 @_ZNSt6chrono13duration_castINS_8durationIlSt5ratioILl1ELl1000EEEElS2_ILl1ELl1000000000EEEENSt9enable_ifIXsr13__is_durationIT_EE5valueES7_E4typeERKNS1_IT0_T1_EE(ptr noundef nonnull align 8 dereferenceable(8) %ref.tmp2)
  %coerce.dive6 = getelementptr inbounds %"class.std::chrono::duration.0", ptr %ref.tmp, i32 0, i32 0
  store i64 %call5, ptr %coerce.dive6, align 8
  %call7 = call noundef i64 @_ZNKSt6chrono8durationIlSt5ratioILl1ELl1000EEE5countEv(ptr noundef nonnull align 8 dereferenceable(8) %ref.tmp)
  store i64 %call7, ptr %epochMs, align 8
  %0 = load i64, ptr %epochMs, align 8
  %call8 = call { i64, i64 } @_ZN8facebook5velox9Timestamp10fromMillisEl(i64 noundef %0)
  %1 = getelementptr inbounds { i64, i64 }, ptr %retval, i32 0, i32 0
  %2 = extractvalue { i64, i64 } %call8, 0
  store i64 %2, ptr %1, align 8
  %3 = getelementptr inbounds { i64, i64 }, ptr %retval, i32 0, i32 1
  %4 = extractvalue { i64, i64 } %call8, 1
  store i64 %4, ptr %3, align 8
  %5 = load { i64, i64 }, ptr %retval, align 8
  ret { i64, i64 } %5
}